target datalayout = "e-m:e-p270:32:32-p271:32:32-p272:64:64-i64:64-i128:128-f80:128-n8:16:32:64-S128"
target triple = "x86_64-pc-linux-gnu"

%struct.H5O_shared_t = type { i32, ptr, i32, %union.anon }
%union.anon = type { %struct.H5O_mesg_loc_t }
%struct.H5O_mesg_loc_t = type { i32, i64 }
%struct.H5O_pline_t = type { %struct.H5O_shared_t, i32, i64, i64, ptr }
%struct.H5O_copy_t = type { i8, i8, i8, i8, i8, i8, i8, ptr, i32, i32, ptr, ptr, i8, ptr, ptr, ptr, ptr, ptr, i64 }
%struct.H5O_copy_file_ud_common_t = type { ptr }

@H5O_pline_ver_bounds = constant [6 x i32] [i32 1, i32 2, i32 2, i32 2, i32 2, i32 2], align 16
@.str.2 = private unnamed_addr constant [102 x i8] c"generated/home/dtcxzyw/WorkSpace/Projects/compilers/llvm-opt-benchmark/bench/hdf5/hdf5/src/H5Opline.c\00", align 1
@H5E_PLINE_g = external global i64, align 8
@H5E_BADRANGE_g = external global i64, align 8
@H5E_OHDR_g = external global i64, align 8
@__func__.H5O__pline_pre_copy_file = private unnamed_addr constant [25 x i8] c"H5O__pline_pre_copy_file\00", align 1
@.str.41 = private unnamed_addr constant [36 x i8] c"pline message version out of bounds\00", align 1
@H5E_CANTINIT_g = external global i64, align 8
@.str.42 = private unnamed_addr constant [15 x i8] c"unable to copy\00", align 1

; Function Attrs: nounwind uwtable
define internal i32 @H5O__pline_pre_copy_file(ptr noundef %0, ptr noundef %1, ptr noundef %2, ptr noundef %3, ptr noundef %4) #0 {
  %6 = alloca ptr, align 8
  %7 = alloca ptr, align 8
  %8 = alloca ptr, align 8
  %9 = alloca ptr, align 8
  %10 = alloca ptr, align 8
  %11 = alloca ptr, align 8
  %12 = alloca ptr, align 8
  %13 = alloca i32, align 4
  %14 = alloca i8, align 1
  store ptr %0, ptr %6, align 8
  store ptr %1, ptr %7, align 8
  store ptr %2, ptr %8, align 8
  store ptr %3, ptr %9, align 8
  store ptr %4, ptr %10, align 8
  %15 = load ptr, ptr %7, align 8
  store ptr %15, ptr %11, align 8
  %16 = load ptr, ptr %10, align 8
  store ptr %16, ptr %12, align 8
  store i32 0, ptr %13, align 4
  store i8 0, ptr %14, align 1
  %17 = load ptr, ptr %11, align 8
  %18 = getelementptr inbounds %struct.H5O_pline_t, ptr %17, i32 0, i32 1
  %19 = load i32, ptr %18, align 8
  %20 = load ptr, ptr %9, align 8
  %21 = getelementptr inbounds %struct.H5O_copy_t, ptr %20, i32 0, i32 14
  %22 = load ptr, ptr %21, align 8
  %23 = call i32 @H5F_get_high_bound(ptr noundef %22)
  %24 = sext i32 %23 to i64
  %25 = getelementptr inbounds [6 x i32], ptr @H5O_pline_ver_bounds, i64 0, i64 %24
  %26 = load i32, ptr %25, align 4
  %27 = icmp ugt i32 %19, %26
  br i1 %27, label %28, label %43

28:                                               ; preds = %5
  br label %29

29:                                               ; preds = %28
  br label %30

30:                                               ; preds = %29
  br label %31

31:                                               ; preds = %30
  %32 = load i64, ptr @H5E_OHDR_g, align 8
  %33 = load i64, ptr @H5E_BADRANGE_g, align 8
  %34 = call i32 (ptr, ptr, i32, i64, i64, ptr, ...) @H5E_printf_stack(ptr noundef @.str.2, ptr noundef @__func__.H5O__pline_pre_copy_file, i32 noundef 604, i64 noundef %32, i64 noundef %33, ptr noundef @.str.41)
  br label %35

35:                                               ; preds = %31
  store i8 1, ptr %14, align 1
  %36 = load i8, ptr %14, align 1
  %37 = trunc i8 %36 to i1
  %38 = zext i1 %37 to i8
  store i8 %38, ptr %14, align 1
  br label %39

39:                                               ; preds = %35
  br label %40

40:                                               ; preds = %39
  store i32 -1, ptr %13, align 4
  br label %69

41:                                               ; No predecessors!
  br label %42

42:                                               ; preds = %41
  br label %43

43:                                               ; preds = %42, %5
  %44 = load ptr, ptr %12, align 8
  %45 = icmp ne ptr %44, null
  br i1 %45, label %46, label %68

46:                                               ; preds = %43
  %47 = load ptr, ptr %11, align 8
  %48 = call ptr @H5O__pline_copy(ptr noundef %47, ptr noundef null)
  %49 = load ptr, ptr %12, align 8
  %50 = getelementptr inbounds %struct.H5O_copy_file_ud_common_t, ptr %49, i32 0, i32 0
  store ptr %48, ptr %50, align 8
  %51 = icmp eq ptr null, %48
  br i1 %51, label %52, label %67

52:                                               ; preds = %46
  br label %53

53:                                               ; preds = %52
  br label %54

54:                                               ; preds = %53
  br label %55

55:                                               ; preds = %54
  %56 = load i64, ptr @H5E_PLINE_g, align 8
  %57 = load i64, ptr @H5E_CANTINIT_g, align 8
  %58 = call i32 (ptr, ptr, i32, i64, i64, ptr, ...) @H5E_printf_stack(ptr noundef @.str.2, ptr noundef @__func__.H5O__pline_pre_copy_file, i32 noundef 612, i64 noundef %56, i64 noundef %57, ptr noundef @.str.42)
  br label %59

59:                                               ; preds = %55
  store i8 1, ptr %14, align 1
  %60 = load i8, ptr %14, align 1
  %61 = trunc i8 %60 to i1
  %62 = zext i1 %61 to i8
  store i8 %62, ptr %14, align 1
  br label %63

63:                                               ; preds = %59
  br label %64

64:                                               ; preds = %63
  store i32 -1, ptr %13, align 4
  br label %69

65:                                               ; No predecessors!
  br label %66

66:                                               ; preds = %65
  br label %67

67:                                               ; preds = %66, %46
  br label %68

68:                                               ; preds = %67, %43
  br label %69

69:                                               ; preds = %68, %64, %40
  %70 = load i32, ptr %13, align 4
  ret i32 %70
}