; Function Attrs: nounwind uwtable
define internal range(i32 -1, 1) i32 @H5O__pline_pre_copy_file(ptr nocapture readnone %0, ptr nocapture noundef readonly %1, ptr nocapture readnone %2, ptr nocapture noundef readonly %3, ptr noundef writeonly %4) #0 {
  %6 = getelementptr inbounds i8, ptr %1, i64 40
  %7 = load i32, ptr %6, align 8
  %8 = getelementptr inbounds i8, ptr %3, i64 56
  %9 = load ptr, ptr %8, align 8
  %10 = tail call i32 @H5F_get_high_bound(ptr noundef %9) #11
  %11 = sext i32 %10 to i64
  %12 = getelementptr inbounds [6 x i32], ptr @H5O_pline_ver_bounds, i64 0, i64 %11
  %13 = load i32, ptr %12, align 4
  %14 = icmp ugt i32 %7, %13
  br i1 %14, label %15, label %19

15:                                               ; preds = %5
  %16 = load i64, ptr @H5E_OHDR_g, align 8
  %17 = load i64, ptr @H5E_BADRANGE_g, align 8
  %18 = tail call i32 (ptr, ptr, i32, i64, i64, ptr, ...) @H5E_printf_stack(ptr noundef nonnull @.str.2, ptr noundef nonnull @__func__.H5O__pline_pre_copy_file, i32 noundef 604, i64 noundef %16, i64 noundef %17, ptr noundef nonnull @.str.41) #11
  br label %27

19:                                               ; preds = %5
  %.not = icmp eq ptr %4, null
  br i1 %.not, label %27, label %20

20:                                               ; preds = %19
  %21 = tail call ptr @H5O__pline_copy(ptr noundef nonnull %1, ptr noundef null)
  store ptr %21, ptr %4, align 8
  %22 = icmp eq ptr %21, null
  br i1 %22, label %23, label %27

23:                                               ; preds = %20
  %24 = load i64, ptr @H5E_PLINE_g, align 8
  %25 = load i64, ptr @H5E_CANTINIT_g, align 8
  %26 = tail call i32 (ptr, ptr, i32, i64, i64, ptr, ...) @H5E_printf_stack(ptr noundef nonnull @.str.2, ptr noundef nonnull @__func__.H5O__pline_pre_copy_file, i32 noundef 612, i64 noundef %24, i64 noundef %25, ptr noundef nonnull @.str.42) #11
  br label %27

27:                                               ; preds = %19, %20, %23, %15
  %.0 = phi i32 [ -1, %15 ], [ -1, %23 ], [ 0, %20 ], [ 0, %19 ]
  ret i32 %.0
}